Certificate:
    Data:
        Version: 3 (0x2)
        Serial Number: 2 (0x2)
        Signature Algorithm: sha1WithRSAEncryption
        Issuer: DC=org, DC=simple, O=Simple Inc, OU=Simple Signing CA, CN=Simple Signing CA
        Validity
            Not Before: Nov 25 19:37:56 2022 GMT
            Not After : Nov 24 19:37:56 2024 GMT
        Subject: DC=org, DC=simple, O=Simple Inc, CN=www.simple.org
        Subject Public Key Info:
            Public Key Algorithm: rsaEncryption
                Public-Key: (2048 bit)
                Modulus:
                    00:e5:2a:dd:f2:f1:d5:c5:be:b7:7e:17:f7:32:5b:
                    c6:75:54:cb:79:af:6c:3d:bd:83:81:cf:ac:1c:64:
                    ce:92:ba:b5:c0:64:c3:9d:71:f2:14:0d:40:c3:d5:
                    90:28:fa:0b:c9:67:2d:8a:6c:d2:1b:fc:eb:33:12:
                    f1:c7:80:64:ff:ee:5a:98:50:51:82:f6:5c:ed:2d:
                    5f:57:7a:6c:e8:71:da:4d:e0:b2:8c:bf:32:4d:37:
                    b3:33:7b:53:a7:22:c0:3f:55:83:ec:b2:4e:7a:78:
                    ae:0c:f2:81:ca:e1:1f:0e:1a:f2:c3:16:b5:e3:fa:
                    73:bd:7c:f8:66:9f:a8:ec:4d:87:1a:09:40:66:57:
                    1b:05:42:75:1b:67:f8:31:8a:cb:19:4e:5b:cb:be:
                    6e:e4:0e:d3:d5:2b:31:53:1f:ee:f3:f4:69:4a:19:
                    a8:4f:28:3a:31:8b:a1:6f:9a:3c:e5:9b:42:39:52:
                    ae:c1:06:1c:0d:73:12:31:72:f1:4a:78:91:0a:a1:
                    99:25:32:c8:25:cd:59:22:49:47:e7:86:6e:2d:5a:
                    c5:6c:99:8e:30:98:bb:31:02:42:64:c2:ba:d7:db:
                    8c:78:1f:79:c2:3e:ce:37:53:85:95:f6:f3:6c:8c:
                    32:13:9a:88:b6:f4:85:73:86:9b:1e:11:2d:06:ee:
                    bc:eb
                Exponent: 65537 (0x10001)
        X509v3 extensions:
            X509v3 Key Usage: critical
                Digital Signature, Key Encipherment
            X509v3 Basic Constraints: 
                CA:FALSE
            X509v3 Extended Key Usage: 
                TLS Web Server Authentication, TLS Web Client Authentication
            X509v3 Subject Key Identifier: 
                5B:FB:33:7E:D2:1B:8E:57:71:EB:48:6A:25:A8:5F:24:14:09:A4:A2
            X509v3 Authority Key Identifier: 
                54:14:4C:29:55:1E:40:31:9D:E3:C1:E2:4B:C9:82:21:AB:05:A7:3E
            X509v3 Subject Alternative Name: 
                DNS:www.simple.org
    Signature Algorithm: sha1WithRSAEncryption
    Signature Value:
        73:32:8f:72:5c:e4:39:03:ac:10:af:34:da:86:a7:c9:04:5b:
        61:13:0a:bd:6e:21:ce:93:25:58:96:bc:18:4f:69:ec:d0:12:
        97:5f:ae:fe:47:a8:2b:44:12:9d:39:64:3d:8a:61:fe:90:e0:
        15:e2:10:cb:c2:e0:1f:96:8b:73:c4:c0:14:d6:6b:a3:4f:be:
        a9:5c:91:0e:26:86:9f:dd:bf:43:6d:3d:4f:44:f5:f5:87:86:
        fb:82:5f:e8:a0:9e:82:cf:f6:05:21:e5:f9:81:35:e2:9c:35:
        b8:ef:fb:96:88:1b:d2:36:9d:46:86:57:b3:9d:70:b6:f6:56:
        12:eb:6c:51:87:8c:9c:94:1c:a7:2e:d4:a3:4c:01:ec:0b:e3:
        d6:f5:99:1f:44:96:36:85:ee:3b:65:26:b5:10:f2:9d:ec:a6:
        6f:12:f8:d4:88:2e:45:be:14:cd:af:49:ec:75:06:87:55:cb:
        39:9e:b8:83:8e:9b:64:65:02:c5:a8:cc:96:13:fa:77:84:c9:
        27:04:64:aa:55:a9:82:ee:2f:cb:43:c0:ac:83:ac:c1:a5:70:
        33:8f:a5:4a:da:5d:c6:97:c2:d6:c6:63:9e:df:9b:c2:a3:a9:
        bd:00:1f:dd:a4:6c:32:a1:07:b4:20:04:0e:1a:65:4c:40:be:
        2d:2a:8d:e8
-----BEGIN CERTIFICATE-----
MIID6TCCAtGgAwIBAgIBAjANBgkqhkiG9w0BAQUFADB6MRMwEQYKCZImiZPyLGQB
GRYDb3JnMRYwFAYKCZImiZPyLGQBGRYGc2ltcGxlMRMwEQYDVQQKDApTaW1wbGUg
SW5jMRowGAYDVQQLDBFTaW1wbGUgU2lnbmluZyBDQTEaMBgGA1UEAwwRU2ltcGxl
IFNpZ25pbmcgQ0EwHhcNMjIxMTI1MTkzNzU2WhcNMjQxMTI0MTkzNzU2WjBbMRMw
EQYKCZImiZPyLGQBGRYDb3JnMRYwFAYKCZImiZPyLGQBGRYGc2ltcGxlMRMwEQYD
VQQKDApTaW1wbGUgSW5jMRcwFQYDVQQDDA53d3cuc2ltcGxlLm9yZzCCASIwDQYJ
KoZIhvcNAQEBBQADggEPADCCAQoCggEBAOUq3fLx1cW+t34X9zJbxnVUy3mvbD29
g4HPrBxkzpK6tcBkw51x8hQNQMPVkCj6C8lnLYps0hv86zMS8ceAZP/uWphQUYL2
XO0tX1d6bOhx2k3gsoy/Mk03szN7U6ciwD9Vg+yyTnp4rgzygcrhHw4a8sMWteP6
c718+GafqOxNhxoJQGZXGwVCdRtn+DGKyxlOW8u+buQO09UrMVMf7vP0aUoZqE8o
OjGLoW+aPOWbQjlSrsEGHA1zEjFy8Up4kQqhmSUyyCXNWSJJR+eGbi1axWyZjjCY
uzECQmTCutfbjHgfecI+zjdThZX282yMMhOaiLb0hXOGmx4RLQbuvOsCAwEAAaOB
mDCBlTAOBgNVHQ8BAf8EBAMCBaAwCQYDVR0TBAIwADAdBgNVHSUEFjAUBggrBgEF
BQcDAQYIKwYBBQUHAwIwHQYDVR0OBBYEFFv7M37SG45XcetIaiWoXyQUCaSiMB8G
A1UdIwQYMBaAFFQUTClVHkAxnePB4kvJgiGrBac+MBkGA1UdEQQSMBCCDnd3dy5z
aW1wbGUub3JnMA0GCSqGSIb3DQEBBQUAA4IBAQBzMo9yXOQ5A6wQrzTahqfJBFth
Ewq9biHOkyVYlrwYT2ns0BKXX67+R6grRBKdOWQ9imH+kOAV4hDLwuAflotzxMAU
1mujT76pXJEOJoaf3b9DbT1PRPX1h4b7gl/ooJ6Cz/YFIeX5gTXinDW47/uWiBvS
Np1GhleznXC29lYS62xRh4yclBynLtSjTAHsC+PW9ZkfRJY2he47ZSa1EPKd7KZv
EvjUiC5FvhTNr0nsdQaHVcs5nriDjptkZQLFqMyWE/p3hMknBGSqVamC7i/LQ8Cs
g6zBpXAzj6VK2l3Gl8LWxmOe35vCo6m9AB/dpGwyoQe0IAQOGmVMQL4tKo3o
-----END CERTIFICATE-----
