Certificate:
    Data:
        Version: 3 (0x2)
        Serial Number: 1 (0x1)
        Signature Algorithm: sha1WithRSAEncryption
        Issuer: DC=org, DC=simple, O=Simple Inc, OU=Simple Root CA, CN=Simple Root CA
        Validity
            Not Before: Nov 25 19:16:58 2022 GMT
            Not After : Nov 24 19:16:58 2032 GMT
        Subject: DC=org, DC=simple, O=Simple Inc, OU=Simple Root CA, CN=Simple Root CA
        Subject Public Key Info:
            Public Key Algorithm: rsaEncryption
                Public-Key: (2048 bit)
                Modulus:
                    00:c6:d5:03:49:a4:82:75:35:db:36:00:5b:63:fa:
                    20:c5:39:19:e0:62:52:3b:94:f9:1f:b7:08:5b:62:
                    bd:41:37:1b:62:fe:c7:3b:69:e7:d8:55:42:2d:a3:
                    6a:dd:ee:82:d1:5f:40:67:be:a5:f2:09:7b:36:ab:
                    99:87:fa:d1:c6:14:73:dc:69:f8:ca:cd:c8:75:12:
                    31:c9:21:a1:85:24:ab:12:8d:7b:79:f4:cd:19:e9:
                    1d:56:ac:22:d0:17:cc:7c:bc:aa:f4:9b:36:de:e6:
                    8d:09:75:83:db:a6:77:3b:0c:ca:0c:65:95:79:c0:
                    4b:62:23:6c:ae:eb:a7:2b:7c:5d:26:1f:4d:63:c4:
                    8b:15:de:1f:e6:97:0b:34:5d:e2:6c:5c:c4:f8:18:
                    7a:3d:e4:c9:d4:63:82:21:91:61:8d:66:43:b5:60:
                    a6:0f:46:16:cf:f0:e4:56:40:86:71:f3:cc:11:a2:
                    0c:55:82:2d:43:d6:32:de:4f:c5:2c:95:d5:b0:f6:
                    ff:76:d9:97:d6:d1:7c:1a:cb:a3:e2:55:5f:d3:d6:
                    4e:52:18:69:7e:ee:f1:20:55:6a:22:f5:1a:02:ef:
                    21:4a:fd:d5:27:85:6b:9a:40:d5:36:57:3f:0e:99:
                    64:3e:5c:f6:18:b0:6f:42:0a:a8:7f:dd:aa:42:a4:
                    10:c5
                Exponent: 65537 (0x10001)
        X509v3 extensions:
            X509v3 Key Usage: critical
                Certificate Sign, CRL Sign
            X509v3 Basic Constraints: critical
                CA:TRUE
            X509v3 Subject Key Identifier: 
                BB:96:C7:2B:46:83:62:1E:56:9B:47:06:2E:00:92:B2:AF:39:12:5D
            X509v3 Authority Key Identifier: 
                BB:96:C7:2B:46:83:62:1E:56:9B:47:06:2E:00:92:B2:AF:39:12:5D
    Signature Algorithm: sha1WithRSAEncryption
    Signature Value:
        af:37:78:bc:b3:5c:fa:e1:4f:43:f0:cd:08:1e:93:87:b5:c6:
        21:f2:d0:b6:47:f5:b7:82:61:b9:f9:93:03:a7:1f:29:57:12:
        69:6d:9a:53:20:75:00:49:64:40:6f:0e:4c:a0:fd:3d:94:77:
        32:82:14:c8:94:a4:a0:a5:9c:35:18:0d:19:6b:c2:b0:b4:d5:
        b7:cc:72:af:b9:12:75:c6:33:23:dd:98:5f:c1:42:ef:a0:cf:
        27:8a:02:e1:9f:7d:67:c9:d2:c8:fe:f2:3a:c6:65:36:94:85:
        ff:98:83:22:9b:5c:ab:bb:24:d9:dc:00:db:99:c0:3b:0d:a9:
        85:42:a7:5a:c3:b6:05:52:f4:aa:00:7d:92:ae:bf:4b:d0:e5:
        68:2e:b6:d0:f0:29:07:1e:8d:6c:46:7e:b4:77:4c:11:88:be:
        a7:ae:97:c3:10:c6:60:3a:b4:60:59:df:84:9e:ff:3a:e3:56:
        09:0b:e6:5c:3b:3e:83:91:d3:d6:43:34:1b:30:e3:0e:4e:f5:
        8e:14:0f:14:3c:bf:19:11:9d:bc:23:33:3b:26:2e:b0:6a:d6:
        93:6f:43:a2:0b:73:55:84:6f:a9:c4:70:03:f9:33:33:76:57:
        81:df:b8:9b:16:95:7a:03:e3:20:95:dc:eb:84:da:38:05:ce:
        50:33:4a:18
-----BEGIN CERTIFICATE-----
MIIDxjCCAq6gAwIBAgIBATANBgkqhkiG9w0BAQUFADB0MRMwEQYKCZImiZPyLGQB
GRYDb3JnMRYwFAYKCZImiZPyLGQBGRYGc2ltcGxlMRMwEQYDVQQKDApTaW1wbGUg
SW5jMRcwFQYDVQQLDA5TaW1wbGUgUm9vdCBDQTEXMBUGA1UEAwwOU2ltcGxlIFJv
b3QgQ0EwHhcNMjIxMTI1MTkxNjU4WhcNMzIxMTI0MTkxNjU4WjB0MRMwEQYKCZIm
iZPyLGQBGRYDb3JnMRYwFAYKCZImiZPyLGQBGRYGc2ltcGxlMRMwEQYDVQQKDApT
aW1wbGUgSW5jMRcwFQYDVQQLDA5TaW1wbGUgUm9vdCBDQTEXMBUGA1UEAwwOU2lt
cGxlIFJvb3QgQ0EwggEiMA0GCSqGSIb3DQEBAQUAA4IBDwAwggEKAoIBAQDG1QNJ
pIJ1Nds2AFtj+iDFORngYlI7lPkftwhbYr1BNxti/sc7aefYVUIto2rd7oLRX0Bn
vqXyCXs2q5mH+tHGFHPcafjKzch1EjHJIaGFJKsSjXt59M0Z6R1WrCLQF8x8vKr0
mzbe5o0JdYPbpnc7DMoMZZV5wEtiI2yu66crfF0mH01jxIsV3h/mlws0XeJsXMT4
GHo95MnUY4IhkWGNZkO1YKYPRhbP8ORWQIZx88wRogxVgi1D1jLeT8UsldWw9v92
2ZfW0Xway6PiVV/T1k5SGGl+7vEgVWoi9RoC7yFK/dUnhWuaQNU2Vz8OmWQ+XPYY
sG9CCqh/3apCpBDFAgMBAAGjYzBhMA4GA1UdDwEB/wQEAwIBBjAPBgNVHRMBAf8E
BTADAQH/MB0GA1UdDgQWBBS7lscrRoNiHlabRwYuAJKyrzkSXTAfBgNVHSMEGDAW
gBS7lscrRoNiHlabRwYuAJKyrzkSXTANBgkqhkiG9w0BAQUFAAOCAQEArzd4vLNc
+uFPQ/DNCB6Th7XGIfLQtkf1t4JhufmTA6cfKVcSaW2aUyB1AElkQG8OTKD9PZR3
MoIUyJSkoKWcNRgNGWvCsLTVt8xyr7kSdcYzI92YX8FC76DPJ4oC4Z99Z8nSyP7y
OsZlNpSF/5iDIptcq7sk2dwA25nAOw2phUKnWsO2BVL0qgB9kq6/S9DlaC620PAp
Bx6NbEZ+tHdMEYi+p66XwxDGYDq0YFnfhJ7/OuNWCQvmXDs+g5HT1kM0GzDjDk71
jhQPFDy/GRGdvCMzOyYusGrWk29DogtzVYRvqcRwA/kzM3ZXgd+4mxaVegPjIJXc
64TaOAXOUDNKGA==
-----END CERTIFICATE-----
