Certificate:
    Data:
        Version: 3 (0x2)
        Serial Number: 2 (0x2)
        Signature Algorithm: sha1WithRSAEncryption
        Issuer: DC=org, DC=simple, O=Simple Inc, OU=Simple Root CA, CN=Simple Root CA
        Validity
            Not Before: Nov 25 19:25:36 2022 GMT
            Not After : Nov 24 19:25:36 2032 GMT
        Subject: DC=org, DC=simple, O=Simple Inc, OU=Simple Signing CA, CN=Simple Signing CA
        Subject Public Key Info:
            Public Key Algorithm: rsaEncryption
                Public-Key: (2048 bit)
                Modulus:
                    00:9e:fc:8b:56:cb:d9:8b:f6:3f:e1:21:dd:af:ce:
                    83:92:86:87:f1:b0:98:62:86:75:65:83:97:ea:c2:
                    b3:a8:24:1d:d3:63:70:8a:0b:1a:50:02:43:e3:af:
                    ab:c6:bb:ea:f2:9c:83:a2:65:6a:ee:1c:b5:e2:0f:
                    f0:8e:bb:05:f1:54:24:f6:70:2c:8f:91:f3:20:86:
                    f4:09:6d:e5:8c:55:1f:0e:12:c9:3d:81:85:9c:40:
                    c8:5a:91:19:6a:19:fc:c4:23:0a:e9:b6:c4:8b:01:
                    7e:cd:b6:58:9a:c4:6b:a6:ed:9f:99:59:cf:64:ea:
                    d4:4e:32:83:a4:82:70:c3:f7:fd:3f:b8:ab:6d:a4:
                    2a:82:7d:b5:2e:3b:aa:e0:55:01:31:de:be:d7:4e:
                    8a:3e:f9:fe:82:91:07:55:27:0c:d7:ab:0f:46:e2:
                    35:54:f4:14:62:11:76:9e:20:98:62:88:f2:95:b9:
                    d7:1f:9c:f2:bb:32:a8:d8:ae:54:29:84:c3:ec:87:
                    eb:e5:2b:c2:88:72:5d:06:e2:42:24:9e:b8:31:b6:
                    67:98:b0:b8:1a:61:42:ce:ee:fc:f8:3a:9b:30:05:
                    b2:78:a2:b9:1a:80:74:4b:c6:d2:01:40:00:99:1a:
                    86:a1:56:b9:05:99:6a:98:7e:a2:9d:d7:26:90:e4:
                    3b:29
                Exponent: 65537 (0x10001)
        X509v3 extensions:
            X509v3 Key Usage: critical
                Certificate Sign, CRL Sign
            X509v3 Basic Constraints: critical
                CA:TRUE, pathlen:0
            X509v3 Subject Key Identifier: 
                54:14:4C:29:55:1E:40:31:9D:E3:C1:E2:4B:C9:82:21:AB:05:A7:3E
            X509v3 Authority Key Identifier: 
                BB:96:C7:2B:46:83:62:1E:56:9B:47:06:2E:00:92:B2:AF:39:12:5D
    Signature Algorithm: sha1WithRSAEncryption
    Signature Value:
        05:9e:ad:ec:af:c8:1f:9b:dd:8c:0a:38:7c:ce:3b:18:4b:fc:
        c0:19:c9:c6:82:7c:46:de:b5:46:2f:21:7f:ca:74:71:d8:be:
        b9:94:3d:43:50:15:45:16:17:b4:14:c1:f0:e9:8e:c7:7c:0a:
        82:5d:ec:ab:34:83:26:cd:0b:e8:1b:ea:a6:2e:60:da:13:b6:
        ad:74:3e:a9:3a:b2:75:72:f7:4a:bb:81:42:3e:9e:2b:aa:4f:
        93:0b:57:54:cb:c0:05:01:a1:e1:a7:a9:e6:fb:a3:11:4e:a0:
        56:65:c2:1e:e8:16:05:51:23:41:d2:18:d6:d8:24:6e:84:4e:
        6e:40:c9:45:1f:6e:ff:cf:06:45:48:83:ca:35:05:a1:d5:0c:
        0d:c8:50:82:a3:ca:35:5d:65:53:d9:5c:16:33:8a:c7:a0:e5:
        57:eb:20:53:cb:d7:f2:31:2c:ff:4e:59:0b:d2:57:ad:a2:fe:
        21:f9:a7:2c:30:0f:fe:e7:2a:c1:5e:89:e8:45:f1:77:7e:75:
        dd:a1:92:ba:bc:aa:e6:d8:c6:6b:f8:33:b2:b0:f7:f1:df:16:
        9a:89:7c:19:8e:0a:f6:6f:d8:0e:83:f2:33:77:6d:d3:39:90:
        92:8d:8f:72:e8:30:7a:07:88:24:27:63:8e:7b:4f:03:03:2b:
        5d:ae:54:5e
-----BEGIN CERTIFICATE-----
MIIDzzCCAregAwIBAgIBAjANBgkqhkiG9w0BAQUFADB0MRMwEQYKCZImiZPyLGQB
GRYDb3JnMRYwFAYKCZImiZPyLGQBGRYGc2ltcGxlMRMwEQYDVQQKDApTaW1wbGUg
SW5jMRcwFQYDVQQLDA5TaW1wbGUgUm9vdCBDQTEXMBUGA1UEAwwOU2ltcGxlIFJv
b3QgQ0EwHhcNMjIxMTI1MTkyNTM2WhcNMzIxMTI0MTkyNTM2WjB6MRMwEQYKCZIm
iZPyLGQBGRYDb3JnMRYwFAYKCZImiZPyLGQBGRYGc2ltcGxlMRMwEQYDVQQKDApT
aW1wbGUgSW5jMRowGAYDVQQLDBFTaW1wbGUgU2lnbmluZyBDQTEaMBgGA1UEAwwR
U2ltcGxlIFNpZ25pbmcgQ0EwggEiMA0GCSqGSIb3DQEBAQUAA4IBDwAwggEKAoIB
AQCe/ItWy9mL9j/hId2vzoOShofxsJhihnVlg5fqwrOoJB3TY3CKCxpQAkPjr6vG
u+rynIOiZWruHLXiD/COuwXxVCT2cCyPkfMghvQJbeWMVR8OEsk9gYWcQMhakRlq
GfzEIwrptsSLAX7NtliaxGum7Z+ZWc9k6tROMoOkgnDD9/0/uKttpCqCfbUuO6rg
VQEx3r7XToo++f6CkQdVJwzXqw9G4jVU9BRiEXaeIJhiiPKVudcfnPK7MqjYrlQp
hMPsh+vlK8KIcl0G4kIknrgxtmeYsLgaYULO7vz4OpswBbJ4orkagHRLxtIBQACZ
GoahVrkFmWqYfqKd1yaQ5DspAgMBAAGjZjBkMA4GA1UdDwEB/wQEAwIBBjASBgNV
HRMBAf8ECDAGAQH/AgEAMB0GA1UdDgQWBBRUFEwpVR5AMZ3jweJLyYIhqwWnPjAf
BgNVHSMEGDAWgBS7lscrRoNiHlabRwYuAJKyrzkSXTANBgkqhkiG9w0BAQUFAAOC
AQEABZ6t7K/IH5vdjAo4fM47GEv8wBnJxoJ8Rt61Ri8hf8p0cdi+uZQ9Q1AVRRYX
tBTB8OmOx3wKgl3sqzSDJs0L6Bvqpi5g2hO2rXQ+qTqydXL3SruBQj6eK6pPkwtX
VMvABQGh4aep5vujEU6gVmXCHugWBVEjQdIY1tgkboRObkDJRR9u/88GRUiDyjUF
odUMDchQgqPKNV1lU9lcFjOKx6DlV+sgU8vX8jEs/05ZC9JXraL+IfmnLDAP/ucq
wV6J6EXxd3513aGSuryq5tjGa/gzsrD38d8Wmol8GY4K9m/YDoPyM3dt0zmQko2P
cugwegeIJCdjjntPAwMrXa5UXg==
-----END CERTIFICATE-----
