Certificate:
    Data:
        Version: 3 (0x2)
        Serial Number: 1 (0x1)
        Signature Algorithm: sha1WithRSAEncryption
        Issuer: DC=org, DC=simple, O=Simple Inc, OU=Simple Signing CA, CN=Simple Signing CA
        Validity
            Not Before: Nov 25 19:34:45 2022 GMT
            Not After : Nov 24 19:34:45 2024 GMT
        Subject: DC=org, DC=simple, O=Simple Inc, CN=Fred Flinstone
        Subject Public Key Info:
            Public Key Algorithm: rsaEncryption
                Public-Key: (2048 bit)
                Modulus:
                    00:bf:6c:3b:be:cd:2e:9e:de:9e:5e:fd:aa:f1:8d:
                    b3:9f:59:dc:7e:8e:4b:3f:ea:53:26:64:74:e8:03:
                    b0:27:92:33:8b:02:35:2a:d6:e3:3e:6f:0c:be:b2:
                    44:e0:75:15:c7:a0:74:9b:7a:8a:b7:32:e1:4f:b9:
                    75:3e:98:ae:5a:71:cd:19:4c:5f:df:56:41:c4:7a:
                    a1:a9:b9:82:54:25:02:28:ce:95:53:b9:1a:f8:b5:
                    ef:81:47:c1:56:44:ba:4e:9c:db:e8:06:77:7b:ae:
                    2a:21:6d:a7:0a:ae:9a:45:cc:1b:e1:48:cb:1b:bc:
                    f4:cf:ad:88:7b:07:64:56:f6:73:cf:ef:d7:63:13:
                    89:21:74:96:08:b8:c1:17:8e:c1:4a:26:00:b4:4a:
                    21:65:be:00:2b:cb:5a:43:74:9a:16:19:6a:7e:47:
                    39:b0:ca:e9:52:8f:cc:28:60:f4:3e:6b:d2:6d:21:
                    45:b1:54:2a:b8:85:76:e6:7b:0c:d2:aa:b7:62:7a:
                    8d:1a:9e:2d:96:09:4b:aa:68:25:81:48:a0:40:c3:
                    52:7f:26:2d:dd:97:1d:f4:c1:32:fb:4b:92:f9:bf:
                    77:8d:44:4f:4a:fc:5f:d9:4f:1b:70:ea:34:f2:58:
                    19:84:66:f1:19:e9:09:b8:60:1f:0a:5a:18:c3:c0:
                    a5:07
                Exponent: 65537 (0x10001)
        X509v3 extensions:
            X509v3 Key Usage: critical
                Digital Signature, Key Encipherment
            X509v3 Basic Constraints: 
                CA:FALSE
            X509v3 Extended Key Usage: 
                E-mail Protection, TLS Web Client Authentication
            X509v3 Subject Key Identifier: 
                60:F8:E6:4B:2D:9B:B3:60:F7:FD:21:CC:C9:AB:5B:B8:9F:8B:12:12
            X509v3 Authority Key Identifier: 
                54:14:4C:29:55:1E:40:31:9D:E3:C1:E2:4B:C9:82:21:AB:05:A7:3E
            X509v3 Subject Alternative Name: 
                email:fred@simple.org
    Signature Algorithm: sha1WithRSAEncryption
    Signature Value:
        4e:dd:c7:04:d0:5c:f5:79:c9:9a:fe:26:98:b8:59:29:4c:7e:
        fc:0e:f6:7d:76:d8:52:57:0a:b3:df:ed:3b:59:5f:00:79:6f:
        2f:18:aa:4e:b2:3b:72:dc:97:d1:9f:ea:61:13:8e:76:86:b6:
        c6:3a:f4:e1:88:33:03:16:36:44:24:40:75:b3:bb:f9:5b:29:
        3d:a0:72:3d:fc:ee:4d:cf:c9:e0:44:d6:1b:f8:2a:71:1f:4e:
        5b:ef:b9:5c:76:f2:67:38:e1:0a:bf:a3:4e:d5:c6:ca:d8:08:
        e5:73:a9:e8:81:a6:88:af:9e:86:5b:48:e8:f7:91:57:f6:60:
        6e:82:a6:39:6b:ad:e0:9b:ef:80:aa:f2:eb:de:68:b7:10:c1:
        a5:85:50:bd:21:54:f7:97:33:41:9d:9b:5f:9a:c3:46:9d:f2:
        bd:6f:2a:c5:4c:b3:06:1b:bd:91:5b:04:a6:ad:42:f3:39:02:
        ac:6d:55:d2:55:d7:b6:4b:4f:bb:53:b0:d1:1c:00:63:a7:85:
        1a:70:2b:74:39:47:95:34:9c:c1:48:23:77:c0:b4:7c:a5:97:
        48:bd:3a:d5:79:29:7a:2a:28:71:3d:5b:89:39:e0:44:c5:3f:
        d8:ba:14:c3:fd:a1:a8:c1:df:88:00:fc:84:7d:1d:d3:24:b3:
        5c:06:d5:f3
-----BEGIN CERTIFICATE-----
MIID6jCCAtKgAwIBAgIBATANBgkqhkiG9w0BAQUFADB6MRMwEQYKCZImiZPyLGQB
GRYDb3JnMRYwFAYKCZImiZPyLGQBGRYGc2ltcGxlMRMwEQYDVQQKDApTaW1wbGUg
SW5jMRowGAYDVQQLDBFTaW1wbGUgU2lnbmluZyBDQTEaMBgGA1UEAwwRU2ltcGxl
IFNpZ25pbmcgQ0EwHhcNMjIxMTI1MTkzNDQ1WhcNMjQxMTI0MTkzNDQ1WjBbMRMw
EQYKCZImiZPyLGQBGRYDb3JnMRYwFAYKCZImiZPyLGQBGRYGc2ltcGxlMRMwEQYD
VQQKDApTaW1wbGUgSW5jMRcwFQYDVQQDDA5GcmVkIEZsaW5zdG9uZTCCASIwDQYJ
KoZIhvcNAQEBBQADggEPADCCAQoCggEBAL9sO77NLp7enl79qvGNs59Z3H6OSz/q
UyZkdOgDsCeSM4sCNSrW4z5vDL6yROB1FcegdJt6ircy4U+5dT6YrlpxzRlMX99W
QcR6oam5glQlAijOlVO5Gvi174FHwVZEuk6c2+gGd3uuKiFtpwqumkXMG+FIyxu8
9M+tiHsHZFb2c8/v12MTiSF0lgi4wReOwUomALRKIWW+ACvLWkN0mhYZan5HObDK
6VKPzChg9D5r0m0hRbFUKriFduZ7DNKqt2J6jRqeLZYJS6poJYFIoEDDUn8mLd2X
HfTBMvtLkvm/d41ET0r8X9lPG3DqNPJYGYRm8RnpCbhgHwpaGMPApQcCAwEAAaOB
mTCBljAOBgNVHQ8BAf8EBAMCBaAwCQYDVR0TBAIwADAdBgNVHSUEFjAUBggrBgEF
BQcDBAYIKwYBBQUHAwIwHQYDVR0OBBYEFGD45kstm7Ng9/0hzMmrW7ifixISMB8G
A1UdIwQYMBaAFFQUTClVHkAxnePB4kvJgiGrBac+MBoGA1UdEQQTMBGBD2ZyZWRA
c2ltcGxlLm9yZzANBgkqhkiG9w0BAQUFAAOCAQEATt3HBNBc9XnJmv4mmLhZKUx+
/A72fXbYUlcKs9/tO1lfAHlvLxiqTrI7ctyX0Z/qYROOdoa2xjr04YgzAxY2RCRA
dbO7+VspPaByPfzuTc/J4ETWG/gqcR9OW++5XHbyZzjhCr+jTtXGytgI5XOp6IGm
iK+ehltI6PeRV/ZgboKmOWut4JvvgKry695otxDBpYVQvSFU95czQZ2bX5rDRp3y
vW8qxUyzBhu9kVsEpq1C8zkCrG1V0lXXtktPu1Ow0RwAY6eFGnArdDlHlTScwUgj
d8C0fKWXSL061XkpeioocT1biTngRMU/2LoUw/2hqMHfiAD8hH0d0ySzXAbV8w==
-----END CERTIFICATE-----
